; Function Attrs: mustprogress uwtable
define void @_ZN7Archive9CheckOpenEPKw(ptr noundef nonnull align 8 dereferenceable(57108) %0, ptr noundef %1) local_unnamed_addr #0 align 2 {
  %3 = alloca %class.uiMsgStore, align 8
  tail call void @_ZN4File5TOpenEPKw(ptr noundef nonnull align 8 dereferenceable(8256) %0, ptr noundef %1)
  %4 = tail call noundef zeroext i1 @_ZN7Archive9IsArchiveEb(ptr noundef nonnull align 8 dereferenceable(57108) %0, i1 noundef zeroext false)
  br i1 %4, label %_ZN7Archive8CheckArcEb.exit, label %5

5:                                                ; preds = %2
  %6 = getelementptr inbounds i8, ptr %0, i64 48865
  %7 = load i8, ptr %6, align 1
  %8 = trunc i8 %7 to i1
  br i1 %8, label %16, label %9

9:                                                ; preds = %5
  call void @llvm.lifetime.start.p0(i64 112, ptr nonnull %3)
  br label %10

10:                                               ; preds = %10, %9
  %indvars.iv.i.i.i = phi i64 [ 0, %9 ], [ %indvars.iv.next.i.i.i, %10 ]
  %11 = getelementptr inbounds [8 x ptr], ptr %3, i64 0, i64 %indvars.iv.i.i.i
  store ptr @.str.2, ptr %11, align 8
  %indvars.iv.next.i.i.i = add nuw nsw i64 %indvars.iv.i.i.i, 1
  %exitcond.not.i.i.i = icmp eq i64 %indvars.iv.next.i.i.i, 8
  br i1 %exitcond.not.i.i.i, label %_Z5uiMsgIJRA2048_wEEv14UIMESSAGE_CODEDpOT_.exit.i, label %10, !llvm.loop !4

_Z5uiMsgIJRA2048_wEEv14UIMESSAGE_CODEDpOT_.exit.i: ; preds = %10
  %12 = getelementptr inbounds i8, ptr %0, i64 52
  %13 = getelementptr inbounds i8, ptr %3, i64 64
  %14 = getelementptr inbounds i8, ptr %3, i64 104
  call void @llvm.memset.p0.i64(ptr noundef nonnull align 8 dereferenceable(40) %13, i8 0, i64 40, i1 false)
  store i32 57, ptr %14, align 8
  %15 = getelementptr inbounds i8, ptr %3, i64 96
  store i32 1, ptr %15, align 8
  store ptr %12, ptr %3, align 8
  call void @_ZN10uiMsgStore3MsgEv(ptr noundef nonnull align 8 dereferenceable(108) %3)
  call void @llvm.lifetime.end.p0(i64 112, ptr nonnull %3)
  br label %16

16:                                               ; preds = %_Z5uiMsgIJRA2048_wEEv14UIMESSAGE_CODEDpOT_.exit.i, %5
  call void @_ZN12ErrorHandler4ExitE8RAR_EXIT(ptr noundef nonnull align 4 dereferenceable(14) @ErrHandler, i32 noundef 2)
  br label %_ZN7Archive8CheckArcEb.exit

_ZN7Archive8CheckArcEb.exit:                      ; preds = %2, %16
  ret void
}